; Function Attrs: mustprogress nofree norecurse nosync nounwind willreturn memory(argmem: readwrite) uwtable
define void @_ZN3fmt3v116detail11file_bufferC2EOS2_(ptr noundef nonnull writeonly align 8 captures(none) dereferenceable(40) initializes((0, 36)) %0, ptr noundef nonnull align 8 captures(none) dereferenceable(40) %1) unnamed_addr #13 align 2 personality ptr @__gxx_personality_v0 {
  %3 = load ptr, ptr %1, align 8, !tbaa !73
  %4 = getelementptr inbounds nuw i8, ptr %1, i64 8
  %5 = load i64, ptr %4, align 8, !tbaa !69
  %6 = getelementptr inbounds nuw i8, ptr %1, i64 16
  %7 = load i64, ptr %6, align 8, !tbaa !72
  store ptr %3, ptr %0, align 8, !tbaa !73
  %8 = getelementptr inbounds nuw i8, ptr %0, i64 8
  store i64 %5, ptr %8, align 8, !tbaa !69
  %9 = getelementptr inbounds nuw i8, ptr %0, i64 16
  store i64 %7, ptr %9, align 8, !tbaa !72
  %10 = getelementptr inbounds nuw i8, ptr %0, i64 24
  store ptr @_ZN3fmt3v116detail11file_buffer4growERNS1_6bufferIcEEm, ptr %10, align 8, !tbaa !74
  %11 = getelementptr inbounds nuw i8, ptr %0, i64 32
  %12 = getelementptr inbounds nuw i8, ptr %1, i64 32
  %13 = load i32, ptr %12, align 8, !tbaa !22
  store i32 %13, ptr %11, align 8, !tbaa !22
  store i32 -1, ptr %12, align 8, !tbaa !22
  tail call void @llvm.memset.p0.i64(ptr noundef nonnull align 8 dereferenceable(24) %1, i8 0, i64 24, i1 false)
  ret void
}